; Function Attrs: mustprogress nounwind uwtable
define internal void @_ZN12_GLOBAL__N_113IntCastResultD2Ev(ptr noundef nonnull align 8 dereferenceable(88) %0) unnamed_addr #0 align 2 {
  store ptr getelementptr inbounds inrange(-16, 80) (i8, ptr @_ZTVN12_GLOBAL__N_113IntCastResultE, i64 16), ptr %0, align 8
  %2 = getelementptr inbounds i8, ptr %0, i64 80
  %.val = load ptr, ptr %2, align 8
  %.not.i.i.i = icmp eq ptr %.val, null
  br i1 %.not.i.i.i, label %_ZNSt10shared_ptrIN12_GLOBAL__N_16ResultEED2Ev.exit, label %3

3:                                                ; preds = %1
  %4 = getelementptr inbounds nuw i8, ptr %.val, i64 8
  %5 = load atomic i64, ptr %4 acquire, align 8
  %6 = icmp eq i64 %5, 4294967297
  %7 = trunc i64 %5 to i32
  br i1 %6, label %8, label %13

8:                                                ; preds = %3
  store i32 0, ptr %4, align 8
  %9 = getelementptr inbounds nuw i8, ptr %.val, i64 12
  store i32 0, ptr %9, align 4
  %10 = load ptr, ptr %.val, align 8
  %11 = getelementptr inbounds i8, ptr %10, i64 16
  %12 = load ptr, ptr %11, align 8
  tail call void %12(ptr noundef nonnull align 8 dereferenceable(16) %.val) #22
  br label %_ZNSt16_Sp_counted_baseILN9__gnu_cxx12_Lock_policyE2EE24_M_release_last_use_coldEv.exit.sink.split.i.i.i.i

13:                                               ; preds = %3
  %14 = load i8, ptr @__libc_single_threaded, align 1
  %.not.i.i.i.i = icmp eq i8 %14, 0
  br i1 %.not.i.i.i.i, label %17, label %15

15:                                               ; preds = %13
  %16 = add nsw i32 %7, -1
  store i32 %16, ptr %4, align 4
  br label %19

17:                                               ; preds = %13
  %18 = atomicrmw volatile add ptr %4, i32 -1 acq_rel, align 4
  br label %19

19:                                               ; preds = %17, %15
  %.0.i.i.i.i = phi i32 [ %7, %15 ], [ %18, %17 ]
  %20 = icmp eq i32 %.0.i.i.i.i, 1
  br i1 %20, label %21, label %_ZNSt10shared_ptrIN12_GLOBAL__N_16ResultEED2Ev.exit

21:                                               ; preds = %19
  %22 = load ptr, ptr %.val, align 8
  %23 = getelementptr inbounds i8, ptr %22, i64 16
  %24 = load ptr, ptr %23, align 8
  tail call void %24(ptr noundef nonnull align 8 dereferenceable(16) %.val) #22
  %25 = getelementptr inbounds nuw i8, ptr %.val, i64 12
  %26 = load i8, ptr @__libc_single_threaded, align 1
  %.not.i.i.i.i.i.i = icmp eq i8 %26, 0
  br i1 %.not.i.i.i.i.i.i, label %30, label %27

27:                                               ; preds = %21
  %28 = load i32, ptr %25, align 4
  %29 = add nsw i32 %28, -1
  store i32 %29, ptr %25, align 4
  br label %32

30:                                               ; preds = %21
  %31 = atomicrmw volatile add ptr %25, i32 -1 acq_rel, align 4
  br label %32

32:                                               ; preds = %30, %27
  %.0.i.i.i.i.i.i = phi i32 [ %28, %27 ], [ %31, %30 ]
  %33 = icmp eq i32 %.0.i.i.i.i.i.i, 1
  br i1 %33, label %_ZNSt16_Sp_counted_baseILN9__gnu_cxx12_Lock_policyE2EE24_M_release_last_use_coldEv.exit.sink.split.i.i.i.i, label %_ZNSt10shared_ptrIN12_GLOBAL__N_16ResultEED2Ev.exit

_ZNSt16_Sp_counted_baseILN9__gnu_cxx12_Lock_policyE2EE24_M_release_last_use_coldEv.exit.sink.split.i.i.i.i: ; preds = %32, %8
  %34 = load ptr, ptr %.val, align 8
  %35 = getelementptr inbounds i8, ptr %34, i64 24
  %36 = load ptr, ptr %35, align 8
  tail call void %36(ptr noundef nonnull align 8 dereferenceable(16) %.val) #22
  br label %_ZNSt10shared_ptrIN12_GLOBAL__N_16ResultEED2Ev.exit

_ZNSt10shared_ptrIN12_GLOBAL__N_16ResultEED2Ev.exit: ; preds = %1, %19, %32, %_ZNSt16_Sp_counted_baseILN9__gnu_cxx12_Lock_policyE2EE24_M_release_last_use_coldEv.exit.sink.split.i.i.i.i
  store ptr getelementptr inbounds inrange(-16, 80) (i8, ptr @_ZTVN12_GLOBAL__N_16ResultE, i64 16), ptr %0, align 8
  %37 = getelementptr inbounds nuw i8, ptr %0, i64 24
  tail call void @_ZNSt7__cxx1112basic_stringIcSt11char_traitsIcESaIcEED1Ev(ptr noundef nonnull align 8 dereferenceable(32) %37) #22
  %38 = getelementptr inbounds i8, ptr %0, i64 16
  %.val.i = load ptr, ptr %38, align 8
  %.not.i.i.i.i1 = icmp eq ptr %.val.i, null
  br i1 %.not.i.i.i.i1, label %_ZN12_GLOBAL__N_16ResultD2Ev.exit, label %39

39:                                               ; preds = %_ZNSt10shared_ptrIN12_GLOBAL__N_16ResultEED2Ev.exit
  %40 = getelementptr inbounds nuw i8, ptr %.val.i, i64 8
  %41 = load atomic i64, ptr %40 acquire, align 8
  %42 = icmp eq i64 %41, 4294967297
  %43 = trunc i64 %41 to i32
  br i1 %42, label %44, label %49

44:                                               ; preds = %39
  store i32 0, ptr %40, align 8
  %45 = getelementptr inbounds nuw i8, ptr %.val.i, i64 12
  store i32 0, ptr %45, align 4
  %46 = load ptr, ptr %.val.i, align 8
  %47 = getelementptr inbounds i8, ptr %46, i64 16
  %48 = load ptr, ptr %47, align 8
  tail call void %48(ptr noundef nonnull align 8 dereferenceable(16) %.val.i) #22
  br label %_ZNSt16_Sp_counted_baseILN9__gnu_cxx12_Lock_policyE2EE24_M_release_last_use_coldEv.exit.sink.split.i.i.i.i.i

49:                                               ; preds = %39
  %50 = load i8, ptr @__libc_single_threaded, align 1
  %.not.i.i.i.i.i = icmp eq i8 %50, 0
  br i1 %.not.i.i.i.i.i, label %53, label %51

51:                                               ; preds = %49
  %52 = add nsw i32 %43, -1
  store i32 %52, ptr %40, align 4
  br label %55

53:                                               ; preds = %49
  %54 = atomicrmw volatile add ptr %40, i32 -1 acq_rel, align 4
  br label %55

55:                                               ; preds = %53, %51
  %.0.i.i.i.i.i = phi i32 [ %43, %51 ], [ %54, %53 ]
  %56 = icmp eq i32 %.0.i.i.i.i.i, 1
  br i1 %56, label %57, label %_ZN12_GLOBAL__N_16ResultD2Ev.exit

57:                                               ; preds = %55
  %58 = load ptr, ptr %.val.i, align 8
  %59 = getelementptr inbounds i8, ptr %58, i64 16
  %60 = load ptr, ptr %59, align 8
  tail call void %60(ptr noundef nonnull align 8 dereferenceable(16) %.val.i) #22
  %61 = getelementptr inbounds nuw i8, ptr %.val.i, i64 12
  %62 = load i8, ptr @__libc_single_threaded, align 1
  %.not.i.i.i.i.i.i.i = icmp eq i8 %62, 0
  br i1 %.not.i.i.i.i.i.i.i, label %66, label %63

63:                                               ; preds = %57
  %64 = load i32, ptr %61, align 4
  %65 = add nsw i32 %64, -1
  store i32 %65, ptr %61, align 4
  br label %68

66:                                               ; preds = %57
  %67 = atomicrmw volatile add ptr %61, i32 -1 acq_rel, align 4
  br label %68

68:                                               ; preds = %66, %63
  %.0.i.i.i.i.i.i.i = phi i32 [ %64, %63 ], [ %67, %66 ]
  %69 = icmp eq i32 %.0.i.i.i.i.i.i.i, 1
  br i1 %69, label %_ZNSt16_Sp_counted_baseILN9__gnu_cxx12_Lock_policyE2EE24_M_release_last_use_coldEv.exit.sink.split.i.i.i.i.i, label %_ZN12_GLOBAL__N_16ResultD2Ev.exit

_ZNSt16_Sp_counted_baseILN9__gnu_cxx12_Lock_policyE2EE24_M_release_last_use_coldEv.exit.sink.split.i.i.i.i.i: ; preds = %68, %44
  %70 = load ptr, ptr %.val.i, align 8
  %71 = getelementptr inbounds i8, ptr %70, i64 24
  %72 = load ptr, ptr %71, align 8
  tail call void %72(ptr noundef nonnull align 8 dereferenceable(16) %.val.i) #22
  br label %_ZN12_GLOBAL__N_16ResultD2Ev.exit

_ZN12_GLOBAL__N_16ResultD2Ev.exit:                ; preds = %_ZNSt10shared_ptrIN12_GLOBAL__N_16ResultEED2Ev.exit, %55, %68, %_ZNSt16_Sp_counted_baseILN9__gnu_cxx12_Lock_policyE2EE24_M_release_last_use_coldEv.exit.sink.split.i.i.i.i.i
  ret void
}